(lp0
(dp1
S'classifier:extra_trees:bootstrap'
p2
cnumpy.core.multiarray
_reconstruct
p3
(cnumpy
ndarray
p4
(I0
tp5
S'b'
p6
tp7
Rp8
(I1
(I0
tp9
cnumpy
dtype
p10
(S'f8'
p11
I0
I1
tp12
Rp13
(I3
S'<'
p14
NNNI-1
I-1
I0
tp15
bI00
S''
p16
tp17
bsS'LOG10_classifier:sgd:alpha'
p18
g3
(g4
(I0
tp19
g6
tp20
Rp21
(I1
(I0
tp22
g13
I00
g16
tp23
bsS'classifier:extra_trees:min_samples_split'
p24
g3
(g4
(I0
tp25
g6
tp26
Rp27
(I1
(I0
tp28
g13
I00
g16
tp29
bsS'LOG10_one_hot_encoding:minimum_fraction'
p30
g3
(g4
(I0
tp31
g6
tp32
Rp33
(I1
(I1
tp34
g10
(S'i8'
p35
I0
I1
tp36
Rp37
(I3
S'<'
p38
NNNI-1
I-1
I0
tp39
bI00
S'\x00\x00\x00\x00\x00\x00\x00\x00'
p40
tp41
bsS'preprocessor:nystroem_sampler:degree'
p42
g3
(g4
(I0
tp43
g6
tp44
Rp45
(I1
(I0
tp46
g13
I00
g16
tp47
bsS'LOG10_classifier:libsvm_svc:C'
p48
g3
(g4
(I0
tp49
g6
tp50
Rp51
(I1
(I0
tp52
g13
I00
g16
tp53
bsS'classifier:lda:n_components'
p54
g3
(g4
(I0
tp55
g6
tp56
Rp57
(I1
(I0
tp58
g13
I00
g16
tp59
bsS'classifier:random_forest:max_depth'
p60
g3
(g4
(I0
tp61
g6
tp62
Rp63
(I1
(I1
tp64
g37
I00
S'\x00\x00\x00\x00\x00\x00\x00\x00'
p65
tp66
bsS'classifier:decision_tree:min_samples_leaf'
p67
g3
(g4
(I0
tp68
g6
tp69
Rp70
(I1
(I0
tp71
g13
I00
g16
tp72
bsS'preprocessor:polynomial:degree'
p73
g3
(g4
(I0
tp74
g6
tp75
Rp76
(I1
(I0
tp77
g13
I00
g16
tp78
bsS'classifier:gradient_boosting:max_features'
p79
g3
(g4
(I0
tp80
g6
tp81
Rp82
(I1
(I0
tp83
g13
I00
g16
tp84
bsS'preprocessor:gaussian_nb:__choice__'
p85
g3
(g4
(I0
tp86
g6
tp87
Rp88
(I1
(I0
tp89
g13
I00
g16
tp90
bsS'preprocessor:gem:N'
p91
g3
(g4
(I0
tp92
g6
tp93
Rp94
(I1
(I0
tp95
g13
I00
g16
tp96
bsS'preprocessor:extra_trees:__choice__'
p97
g3
(g4
(I0
tp98
g6
tp99
Rp100
(I1
(I0
tp101
g13
I00
g16
tp102
bsS'classifier:liblinear_svc:intercept_scaling'
p103
g3
(g4
(I0
tp104
g6
tp105
Rp106
(I1
(I0
tp107
g13
I00
g16
tp108
bsS'LOG10_Q1_classifier:k_nearest_neighbors:n_neighbors'
p109
g3
(g4
(I0
tp110
g6
tp111
Rp112
(I1
(I0
tp113
g13
I00
g16
tp114
bsS'classifier:multinomial_nb:fit_prior'
p115
g3
(g4
(I0
tp116
g6
tp117
Rp118
(I1
(I0
tp119
g13
I00
g16
tp120
bsS'LOG10_classifier:libsvm_svc:gamma'
p121
g3
(g4
(I0
tp122
g6
tp123
Rp124
(I1
(I0
tp125
g13
I00
g16
tp126
bsS'imputation:strategy'
p127
g3
(g4
(I0
tp128
g6
tp129
Rp130
(I1
(I1
tp131
g37
I00
S'\x00\x00\x00\x00\x00\x00\x00\x00'
p132
tp133
bsS'classifier:random_forest:min_samples_leaf'
p134
g3
(g4
(I0
tp135
g6
tp136
Rp137
(I1
(I1
tp138
g37
I00
S'\x00\x00\x00\x00\x00\x00\x00\x00'
p139
tp140
bsS'classifier:decision_tree:splitter'
p141
g3
(g4
(I0
tp142
g6
tp143
Rp144
(I1
(I0
tp145
g13
I00
g16
tp146
bsS'classifier:proj_logit:max_epochs'
p147
g3
(g4
(I0
tp148
g6
tp149
Rp150
(I1
(I0
tp151
g13
I00
g16
tp152
bsS'classifier:__choice__'
p153
g3
(g4
(I0
tp154
g6
tp155
Rp156
(I1
(I1
tp157
g37
I00
S'\x00\x00\x00\x00\x00\x00\x00\x00'
p158
tp159
bsS'classifier:sgd:penalty'
p160
g3
(g4
(I0
tp161
g6
tp162
Rp163
(I1
(I0
tp164
g13
I00
g16
tp165
bsS'preprocessor:select_percentile_classification:percentile'
p166
g3
(g4
(I0
tp167
g6
tp168
Rp169
(I1
(I0
tp170
g13
I00
g16
tp171
bsS'classifier:gradient_boosting:subsample'
p172
g3
(g4
(I0
tp173
g6
tp174
Rp175
(I1
(I0
tp176
g13
I00
g16
tp177
bsS'preprocessor:random_trees_embedding:max_leaf_nodes'
p178
g3
(g4
(I0
tp179
g6
tp180
Rp181
(I1
(I0
tp182
g13
I00
g16
tp183
bsS'preprocessor:liblinear_svc_preprocessor:intercept_scaling'
p184
g3
(g4
(I0
tp185
g6
tp186
Rp187
(I1
(I0
tp188
g13
I00
g16
tp189
bsS'classifier:gradient_boosting:loss'
p190
g3
(g4
(I0
tp191
g6
tp192
Rp193
(I1
(I0
tp194
g13
I00
g16
tp195
bsS'preprocessor:select_percentile_classification:score_func'
p196
g3
(g4
(I0
tp197
g6
tp198
Rp199
(I1
(I0
tp200
g13
I00
g16
tp201
bsS'preprocessor:random_trees_embedding:n_estimators'
p202
g3
(g4
(I0
tp203
g6
tp204
Rp205
(I1
(I0
tp206
g13
I00
g16
tp207
bsS'LOG10_classifier:lda:tol'
p208
g3
(g4
(I0
tp209
g6
tp210
Rp211
(I1
(I0
tp212
g13
I00
g16
tp213
bsS'preprocessor:liblinear:__choice__'
p214
g3
(g4
(I0
tp215
g6
tp216
Rp217
(I1
(I0
tp218
g13
I00
g16
tp219
bsS'classifier:qda:reg_param'
p220
g3
(g4
(I0
tp221
g6
tp222
Rp223
(I1
(I0
tp224
g13
I00
g16
tp225
bsS'classifier:adaboost:max_depth'
p226
g3
(g4
(I0
tp227
g6
tp228
Rp229
(I1
(I0
tp230
g13
I00
g16
tp231
bsS'classifier:liblinear_svc:fit_intercept'
p232
g3
(g4
(I0
tp233
g6
tp234
Rp235
(I1
(I0
tp236
g13
I00
g16
tp237
bsS'classifier:libsvm_svc:shrinking'
p238
g3
(g4
(I0
tp239
g6
tp240
Rp241
(I1
(I0
tp242
g13
I00
g16
tp243
bsS'classifier:extra_trees:max_features'
p244
g3
(g4
(I0
tp245
g6
tp246
Rp247
(I1
(I0
tp248
g13
I00
g16
tp249
bsS'classifier:libsvm_svc:max_iter'
p250
g3
(g4
(I0
tp251
g6
tp252
Rp253
(I1
(I0
tp254
g13
I00
g16
tp255
bsS'preprocessor:pca:whiten'
p256
g3
(g4
(I0
tp257
g6
tp258
Rp259
(I1
(I0
tp260
g13
I00
g16
tp261
bsS'classifier:gradient_boosting:max_leaf_nodes'
p262
g3
(g4
(I0
tp263
g6
tp264
Rp265
(I1
(I0
tp266
g13
I00
g16
tp267
bsS'preprocessor:extra_trees_preproc_for_classification:max_features'
p268
g3
(g4
(I0
tp269
g6
tp270
Rp271
(I1
(I0
tp272
g13
I00
g16
tp273
bsS'classifier:random_forest:min_samples_split'
p274
g3
(g4
(I0
tp275
g6
tp276
Rp277
(I1
(I1
tp278
g37
I00
S'\x00\x00\x00\x00\x00\x00\x00\x00'
p279
tp280
bsS'preprocessor:extra_trees_preproc_for_classification:n_estimators'
p281
g3
(g4
(I0
tp282
g6
tp283
Rp284
(I1
(I0
tp285
g13
I00
g16
tp286
bsS'LOG10_preprocessor:liblinear_svc_preprocessor:C'
p287
g3
(g4
(I0
tp288
g6
tp289
Rp290
(I1
(I0
tp291
g13
I00
g16
tp292
bsS'classifier:sgd:learning_rate'
p293
g3
(g4
(I0
tp294
g6
tp295
Rp296
(I1
(I0
tp297
g13
I00
g16
tp298
bsS'LOG10_classifier:sgd:epsilon'
p299
g3
(g4
(I0
tp300
g6
tp301
Rp302
(I1
(I0
tp303
g13
I00
g16
tp304
bsS'LOG10_classifier:gradient_boosting:learning_rate'
p305
g3
(g4
(I0
tp306
g6
tp307
Rp308
(I1
(I0
tp309
g13
I00
g16
tp310
bsS'classifier:passive_aggressive:fit_intercept'
p311
g3
(g4
(I0
tp312
g6
tp313
Rp314
(I1
(I0
tp315
g13
I00
g16
tp316
bsS'classifier:libsvm_svc:coef0'
p317
g3
(g4
(I0
tp318
g6
tp319
Rp320
(I1
(I0
tp321
g13
I00
g16
tp322
bsS'preprocessor:liblinear_svc_preprocessor:loss'
p323
g3
(g4
(I0
tp324
g6
tp325
Rp326
(I1
(I0
tp327
g13
I00
g16
tp328
bsS'preprocessor:feature_agglomeration:pooling_func'
p329
g3
(g4
(I0
tp330
g6
tp331
Rp332
(I1
(I0
tp333
g13
I00
g16
tp334
bsS'preprocessor:kernel_pca:degree'
p335
g3
(g4
(I0
tp336
g6
tp337
Rp338
(I1
(I0
tp339
g13
I00
g16
tp340
bsS'LOG10_classifier:adaboost:learning_rate'
p341
g3
(g4
(I0
tp342
g6
tp343
Rp344
(I1
(I0
tp345
g13
I00
g16
tp346
bsS'classifier:decision_tree:max_leaf_nodes'
p347
g3
(g4
(I0
tp348
g6
tp349
Rp350
(I1
(I0
tp351
g13
I00
g16
tp352
bsS'LOG10_classifier:sgd:l1_ratio'
p353
g3
(g4
(I0
tp354
g6
tp355
Rp356
(I1
(I0
tp357
g13
I00
g16
tp358
bsS'classifier:random_forest:n_estimators'
p359
g3
(g4
(I0
tp360
g6
tp361
Rp362
(I1
(I1
tp363
g37
I00
S'\x00\x00\x00\x00\x00\x00\x00\x00'
p364
tp365
bsS'classifier:gradient_boosting:max_depth'
p366
g3
(g4
(I0
tp367
g6
tp368
Rp369
(I1
(I0
tp370
g13
I00
g16
tp371
bsS'classifier:lda:shrinkage'
p372
g3
(g4
(I0
tp373
g6
tp374
Rp375
(I1
(I0
tp376
g13
I00
g16
tp377
bsS'preprocessor:rf:__choice__'
p378
g3
(g4
(I0
tp379
g6
tp380
Rp381
(I1
(I1
tp382
g37
I00
S'\x00\x00\x00\x00\x00\x00\x00\x00'
p383
tp384
bsS'classifier:gradient_boosting:min_weight_fraction_leaf'
p385
g3
(g4
(I0
tp386
g6
tp387
Rp388
(I1
(I0
tp389
g13
I00
g16
tp390
bsS'classifier:gradient_boosting:n_estimators'
p391
g3
(g4
(I0
tp392
g6
tp393
Rp394
(I1
(I0
tp395
g13
I00
g16
tp396
bsS'classifier:sgd:power_t'
p397
g3
(g4
(I0
tp398
g6
tp399
Rp400
(I1
(I0
tp401
g13
I00
g16
tp402
bsS'LOG10_classifier:libsvm_svc:tol'
p403
g3
(g4
(I0
tp404
g6
tp405
Rp406
(I1
(I0
tp407
g13
I00
g16
tp408
bsS'preprocessor:kernel_pca:n_components'
p409
g3
(g4
(I0
tp410
g6
tp411
Rp412
(I1
(I0
tp413
g13
I00
g16
tp414
bsS'preprocessor:knn:__choice__'
p415
g3
(g4
(I0
tp416
g6
tp417
Rp418
(I1
(I0
tp419
g13
I00
g16
tp420
bsS'classifier:liblinear_svc:penalty'
p421
g3
(g4
(I0
tp422
g6
tp423
Rp424
(I1
(I0
tp425
g13
I00
g16
tp426
bsS'preprocessor:nystroem_sampler:kernel'
p427
g3
(g4
(I0
tp428
g6
tp429
Rp430
(I1
(I0
tp431
g13
I00
g16
tp432
bsS'preprocessor:liblinear_svc_preprocessor:multi_class'
p433
g3
(g4
(I0
tp434
g6
tp435
Rp436
(I1
(I0
tp437
g13
I00
g16
tp438
bsS'classifier:k_nearest_neighbors:weights'
p439
g3
(g4
(I0
tp440
g6
tp441
Rp442
(I1
(I0
tp443
g13
I00
g16
tp444
bsS'classifier:sgd:average'
p445
g3
(g4
(I0
tp446
g6
tp447
Rp448
(I1
(I0
tp449
g13
I00
g16
tp450
bsS'preprocessor:lda:__choice__'
p451
g3
(g4
(I0
tp452
g6
tp453
Rp454
(I1
(I0
tp455
g13
I00
g16
tp456
bsS'classifier:decision_tree:max_depth'
p457
g3
(g4
(I0
tp458
g6
tp459
Rp460
(I1
(I0
tp461
g13
I00
g16
tp462
bsS'preprocessor:liblinear_svc_preprocessor:dual'
p463
g3
(g4
(I0
tp464
g6
tp465
Rp466
(I1
(I0
tp467
g13
I00
g16
tp468
bsS'preprocessor:random_trees_embedding:min_samples_split'
p469
g3
(g4
(I0
tp470
g6
tp471
Rp472
(I1
(I0
tp473
g13
I00
g16
tp474
bsS'preprocessor:gradient_boosting:__choice__'
p475
g3
(g4
(I0
tp476
g6
tp477
Rp478
(I1
(I0
tp479
g13
I00
g16
tp480
bsS'classifier:liblinear_svc:multi_class'
p481
g3
(g4
(I0
tp482
g6
tp483
Rp484
(I1
(I0
tp485
g13
I00
g16
tp486
bsS'classifier:decision_tree:min_samples_split'
p487
g3
(g4
(I0
tp488
g6
tp489
Rp490
(I1
(I0
tp491
g13
I00
g16
tp492
bsS'LOG10_classifier:liblinear_svc:C'
p493
g3
(g4
(I0
tp494
g6
tp495
Rp496
(I1
(I0
tp497
g13
I00
g16
tp498
bsS'classifier:extra_trees:min_samples_leaf'
p499
g3
(g4
(I0
tp500
g6
tp501
Rp502
(I1
(I0
tp503
g13
I00
g16
tp504
bsS'LOG10_classifier:passive_aggressive:C'
p505
g3
(g4
(I0
tp506
g6
tp507
Rp508
(I1
(I0
tp509
g13
I00
g16
tp510
bsS'classifier:libsvm_svc:kernel'
p511
g3
(g4
(I0
tp512
g6
tp513
Rp514
(I1
(I0
tp515
g13
I00
g16
tp516
bsS'preprocessor:nystroem_sampler:coef0'
p517
g3
(g4
(I0
tp518
g6
tp519
Rp520
(I1
(I0
tp521
g13
I00
g16
tp522
bsS'classifier:extra_trees:n_estimators'
p523
g3
(g4
(I0
tp524
g6
tp525
Rp526
(I1
(I0
tp527
g13
I00
g16
tp528
bsS'LOG10_preprocessor:nystroem_sampler:gamma'
p529
g3
(g4
(I0
tp530
g6
tp531
Rp532
(I1
(I0
tp533
g13
I00
g16
tp534
bsS'preprocessor:feature_agglomeration:n_clusters'
p535
g3
(g4
(I0
tp536
g6
tp537
Rp538
(I1
(I0
tp539
g13
I00
g16
tp540
bsS'preprocessor:proj_logit:__choice__'
p541
g3
(g4
(I0
tp542
g6
tp543
Rp544
(I1
(I0
tp545
g13
I00
g16
tp546
bsS'classifier:decision_tree:max_features'
p547
g3
(g4
(I0
tp548
g6
tp549
Rp550
(I1
(I0
tp551
g13
I00
g16
tp552
bsS'classifier:random_forest:bootstrap'
p553
g3
(g4
(I0
tp554
g6
tp555
Rp556
(I1
(I1
tp557
g37
I00
S'\x00\x00\x00\x00\x00\x00\x00\x00'
p558
tp559
bsS'classifier:sgd:eta0'
p560
g3
(g4
(I0
tp561
g6
tp562
Rp563
(I1
(I0
tp564
g13
I00
g16
tp565
bsS'classifier:gradient_boosting:min_samples_split'
p566
g3
(g4
(I0
tp567
g6
tp568
Rp569
(I1
(I0
tp570
g13
I00
g16
tp571
bsS'preprocessor:select_rates:mode'
p572
g3
(g4
(I0
tp573
g6
tp574
Rp575
(I1
(I0
tp576
g13
I00
g16
tp577
bsS'classifier:passive_aggressive:loss'
p578
g3
(g4
(I0
tp579
g6
tp580
Rp581
(I1
(I0
tp582
g13
I00
g16
tp583
bsS'preprocessor:extra_trees_preproc_for_classification:bootstrap'
p584
g3
(g4
(I0
tp585
g6
tp586
Rp587
(I1
(I0
tp588
g13
I00
g16
tp589
bsS'LOG10_Q1_preprocessor:kitchen_sinks:n_components'
p590
g3
(g4
(I0
tp591
g6
tp592
Rp593
(I1
(I0
tp594
g13
I00
g16
tp595
bsS'preprocessor:fast_ica:n_components'
p596
g3
(g4
(I0
tp597
g6
tp598
Rp599
(I1
(I0
tp600
g13
I00
g16
tp601
bsS'classifier:k_nearest_neighbors:p'
p602
g3
(g4
(I0
tp603
g6
tp604
Rp605
(I1
(I0
tp606
g13
I00
g16
tp607
bsS'preprocessor:extra_trees_preproc_for_classification:min_samples_leaf'
p608
g3
(g4
(I0
tp609
g6
tp610
Rp611
(I1
(I0
tp612
g13
I00
g16
tp613
bsS'classifier:sgd:fit_intercept'
p614
g3
(g4
(I0
tp615
g6
tp616
Rp617
(I1
(I0
tp618
g13
I00
g16
tp619
bsS'LOG10_preprocessor:kernel_pca:gamma'
p620
g3
(g4
(I0
tp621
g6
tp622
Rp623
(I1
(I0
tp624
g13
I00
g16
tp625
bsS'classifier:extra_trees:max_depth'
p626
g3
(g4
(I0
tp627
g6
tp628
Rp629
(I1
(I0
tp630
g13
I00
g16
tp631
bsS'classifier:decision_tree:min_weight_fraction_leaf'
p632
g3
(g4
(I0
tp633
g6
tp634
Rp635
(I1
(I0
tp636
g13
I00
g16
tp637
bsS'one_hot_encoding:use_minimum_fraction'
p638
g3
(g4
(I0
tp639
g6
tp640
Rp641
(I1
(I1
tp642
g37
I00
S'\x00\x00\x00\x00\x00\x00\x00\x00'
p643
tp644
bsS'preprocessor:extra_trees_preproc_for_classification:max_depth'
p645
g3
(g4
(I0
tp646
g6
tp647
Rp648
(I1
(I0
tp649
g13
I00
g16
tp650
bsS'classifier:sgd:loss'
p651
g3
(g4
(I0
tp652
g6
tp653
Rp654
(I1
(I0
tp655
g13
I00
g16
tp656
bsS'preprocessor:polynomial:interaction_only'
p657
g3
(g4
(I0
tp658
g6
tp659
Rp660
(I1
(I0
tp661
g13
I00
g16
tp662
bsS'preprocessor:kernel_pca:kernel'
p663
g3
(g4
(I0
tp664
g6
tp665
Rp666
(I1
(I0
tp667
g13
I00
g16
tp668
bsS'preprocessor:fast_ica:whiten'
p669
g3
(g4
(I0
tp670
g6
tp671
Rp672
(I1
(I0
tp673
g13
I00
g16
tp674
bsS'LOG10_classifier:liblinear_svc:tol'
p675
g3
(g4
(I0
tp676
g6
tp677
Rp678
(I1
(I0
tp679
g13
I00
g16
tp680
bsS'preprocessor:feature_agglomeration:affinity'
p681
g3
(g4
(I0
tp682
g6
tp683
Rp684
(I1
(I0
tp685
g13
I00
g16
tp686
bsS'preprocessor:extra_trees_preproc_for_classification:min_weight_fraction_leaf'
p687
g3
(g4
(I0
tp688
g6
tp689
Rp690
(I1
(I0
tp691
g13
I00
g16
tp692
bsS'preprocessor:fast_ica:fun'
p693
g3
(g4
(I0
tp694
g6
tp695
Rp696
(I1
(I0
tp697
g13
I00
g16
tp698
bsS'balancing:strategy'
p699
g3
(g4
(I0
tp700
g6
tp701
Rp702
(I1
(I1
tp703
g37
I00
S'\x00\x00\x00\x00\x00\x00\x00\x00'
p704
tp705
bsS'classifier:random_forest:max_features'
p706
g3
(g4
(I0
tp707
g6
tp708
Rp709
(I1
(I1
tp710
g37
I00
S'\x00\x00\x00\x00\x00\x00\x00\x00'
p711
tp712
bsS'classifier:adaboost:n_estimators'
p713
g3
(g4
(I0
tp714
g6
tp715
Rp716
(I1
(I0
tp717
g13
I00
g16
tp718
bsS'preprocessor:random_trees_embedding:min_weight_fraction_leaf'
p719
g3
(g4
(I0
tp720
g6
tp721
Rp722
(I1
(I0
tp723
g13
I00
g16
tp724
bsS'preprocessor:pca:keep_variance'
p725
g3
(g4
(I0
tp726
g6
tp727
Rp728
(I1
(I0
tp729
g13
I00
g16
tp730
bsS'preprocessor:extra_trees_preproc_for_classification:criterion'
p731
g3
(g4
(I0
tp732
g6
tp733
Rp734
(I1
(I0
tp735
g13
I00
g16
tp736
bsS'preprocessor:liblinear_svc_preprocessor:fit_intercept'
p737
g3
(g4
(I0
tp738
g6
tp739
Rp740
(I1
(I0
tp741
g13
I00
g16
tp742
bsS'preprocessor:kernel_pca:coef0'
p743
g3
(g4
(I0
tp744
g6
tp745
Rp746
(I1
(I0
tp747
g13
I00
g16
tp748
bsS'preprocessor:adaboost:__choice__'
p749
g3
(g4
(I0
tp750
g6
tp751
Rp752
(I1
(I0
tp753
g13
I00
g16
tp754
bsS'preprocessor:liblinear_svc_preprocessor:penalty'
p755
g3
(g4
(I0
tp756
g6
tp757
Rp758
(I1
(I0
tp759
g13
I00
g16
tp760
bsS'preprocessor:qda:__choice__'
p761
g3
(g4
(I0
tp762
g6
tp763
Rp764
(I1
(I0
tp765
g13
I00
g16
tp766
bsS'preprocessor:select_rates:score_func'
p767
g3
(g4
(I0
tp768
g6
tp769
Rp770
(I1
(I0
tp771
g13
I00
g16
tp772
bsS'LOG10_Q1_classifier:sgd:n_iter'
p773
g3
(g4
(I0
tp774
g6
tp775
Rp776
(I1
(I0
tp777
g13
I00
g16
tp778
bsS'classifier:random_forest:min_weight_fraction_leaf'
p779
g3
(g4
(I0
tp780
g6
tp781
Rp782
(I1
(I1
tp783
g37
I00
S'\x00\x00\x00\x00\x00\x00\x00\x00'
p784
tp785
bsS'preprocessor:sgd:__choice__'
p786
g3
(g4
(I0
tp787
g6
tp788
Rp789
(I1
(I0
tp790
g13
I00
g16
tp791
bsS'classifier:extra_trees:min_weight_fraction_leaf'
p792
g3
(g4
(I0
tp793
g6
tp794
Rp795
(I1
(I0
tp796
g13
I00
g16
tp797
bsS'classifier:random_forest:criterion'
p798
g3
(g4
(I0
tp799
g6
tp800
Rp801
(I1
(I1
tp802
g37
I00
S'\x00\x00\x00\x00\x00\x00\x00\x00'
p803
tp804
bsS'preprocessor:decision_tree:__choice__'
p805
g3
(g4
(I0
tp806
g6
tp807
Rp808
(I1
(I0
tp809
g13
I00
g16
tp810
bsS'classifier:decision_tree:criterion'
p811
g3
(g4
(I0
tp812
g6
tp813
Rp814
(I1
(I0
tp815
g13
I00
g16
tp816
bsS'preprocessor:extra_trees_preproc_for_classification:min_samples_split'
p817
g3
(g4
(I0
tp818
g6
tp819
Rp820
(I1
(I0
tp821
g13
I00
g16
tp822
bsS'preprocessor:random_trees_embedding:max_depth'
p823
g3
(g4
(I0
tp824
g6
tp825
Rp826
(I1
(I0
tp827
g13
I00
g16
tp828
bsS'preprocessor:select_rates:alpha'
p829
g3
(g4
(I0
tp830
g6
tp831
Rp832
(I1
(I0
tp833
g13
I00
g16
tp834
bsS'classifier:adaboost:algorithm'
p835
g3
(g4
(I0
tp836
g6
tp837
Rp838
(I1
(I0
tp839
g13
I00
g16
tp840
bsS'classifier:lda:shrinkage_factor'
p841
g3
(g4
(I0
tp842
g6
tp843
Rp844
(I1
(I0
tp845
g13
I00
g16
tp846
bsS'preprocessor:libsvm:__choice__'
p847
g3
(g4
(I0
tp848
g6
tp849
Rp850
(I1
(I0
tp851
g13
I00
g16
tp852
bsS'preprocessor:fast_ica:algorithm'
p853
g3
(g4
(I0
tp854
g6
tp855
Rp856
(I1
(I0
tp857
g13
I00
g16
tp858
bsS'classifier:libsvm_svc:degree'
p859
g3
(g4
(I0
tp860
g6
tp861
Rp862
(I1
(I0
tp863
g13
I00
g16
tp864
bsS'classifier:extra_trees:criterion'
p865
g3
(g4
(I0
tp866
g6
tp867
Rp868
(I1
(I0
tp869
g13
I00
g16
tp870
bsS'LOG10_classifier:multinomial_nb:alpha'
p871
g3
(g4
(I0
tp872
g6
tp873
Rp874
(I1
(I0
tp875
g13
I00
g16
tp876
bsS'rescaling:__choice__'
p877
g3
(g4
(I0
tp878
g6
tp879
Rp880
(I1
(I1
tp881
g37
I00
S'\x00\x00\x00\x00\x00\x00\x00\x00'
p882
tp883
bsS'preprocessor:polynomial:include_bias'
p884
g3
(g4
(I0
tp885
g6
tp886
Rp887
(I1
(I0
tp888
g13
I00
g16
tp889
bsS'classifier:liblinear_svc:dual'
p890
g3
(g4
(I0
tp891
g6
tp892
Rp893
(I1
(I0
tp894
g13
I00
g16
tp895
bsS'LOG10_Q1_classifier:passive_aggressive:n_iter'
p896
g3
(g4
(I0
tp897
g6
tp898
Rp899
(I1
(I0
tp900
g13
I00
g16
tp901
bsS'preprocessor:multinomial_nb__choice__'
p902
g3
(g4
(I0
tp903
g6
tp904
Rp905
(I1
(I0
tp906
g13
I00
g16
tp907
bsS'preprocessor:feature_agglomeration:linkage'
p908
g3
(g4
(I0
tp909
g6
tp910
Rp911
(I1
(I0
tp912
g13
I00
g16
tp913
bsS'classifier:gradient_boosting:min_samples_leaf'
p914
g3
(g4
(I0
tp915
g6
tp916
Rp917
(I1
(I0
tp918
g13
I00
g16
tp919
bsS'classifier:random_forest:max_leaf_nodes'
p920
g3
(g4
(I0
tp921
g6
tp922
Rp923
(I1
(I1
tp924
g37
I00
S'\x00\x00\x00\x00\x00\x00\x00\x00'
p925
tp926
bsS'LOG10_Q1_preprocessor:nystroem_sampler:n_components'
p927
g3
(g4
(I0
tp928
g6
tp929
Rp930
(I1
(I0
tp931
g13
I00
g16
tp932
bsS'preprocessor:random_trees_embedding:min_samples_leaf'
p933
g3
(g4
(I0
tp934
g6
tp935
Rp936
(I1
(I0
tp937
g13
I00
g16
tp938
bsS'preprocessor:passive_agg:__choice__'
p939
g3
(g4
(I0
tp940
g6
tp941
Rp942
(I1
(I0
tp943
g13
I00
g16
tp944
bsS'LOG10_preprocessor:liblinear_svc_preprocessor:tol'
p945
g3
(g4
(I0
tp946
g6
tp947
Rp948
(I1
(I0
tp949
g13
I00
g16
tp950
bsS'preprocessor:kitchen_sinks:gamma'
p951
g3
(g4
(I0
tp952
g6
tp953
Rp954
(I1
(I0
tp955
g13
I00
g16
tp956
bsS'preprocessor:gem:precond'
p957
g3
(g4
(I0
tp958
g6
tp959
Rp960
(I1
(I0
tp961
g13
I00
g16
tp962
bsS'classifier:liblinear_svc:loss'
p963
g3
(g4
(I0
tp964
g6
tp965
Rp966
(I1
(I0
tp967
g13
I00
g16
tp968
bsa(dp969
g2
g3
(g4
(I0
tp970
g6
tp971
Rp972
(I1
(I0
tp973
g13
I00
g16
tp974
bsg18
g3
(g4
(I0
tp975
g6
tp976
Rp977
(I1
(I0
tp978
g13
I00
g16
tp979
bsg24
g3
(g4
(I0
tp980
g6
tp981
Rp982
(I1
(I0
tp983
g13
I00
g16
tp984
bsS'LOG10_one_hot_encoding:minimum_fraction'
p985
g3
(g4
(I0
tp986
g6
tp987
Rp988
(I1
(I1
tp989
g13
I00
S'\x00\x00\x00\x00\x00\x00\x00\xc0'
p990
tp991
bsg42
g3
(g4
(I0
tp992
g6
tp993
Rp994
(I1
(I0
tp995
g13
I00
g16
tp996
bsg48
g3
(g4
(I0
tp997
g6
tp998
Rp999
(I1
(I0
tp1000
g13
I00
g16
tp1001
bsg54
g3
(g4
(I0
tp1002
g6
tp1003
Rp1004
(I1
(I0
tp1005
g13
I00
g16
tp1006
bsg244
g3
(g4
(I0
tp1007
g6
tp1008
Rp1009
(I1
(I0
tp1010
g13
I00
g16
tp1011
bsg67
g3
(g4
(I0
tp1012
g6
tp1013
Rp1014
(I1
(I0
tp1015
g13
I00
g16
tp1016
bsg73
g3
(g4
(I0
tp1017
g6
tp1018
Rp1019
(I1
(I0
tp1020
g13
I00
g16
tp1021
bsg79
g3
(g4
(I0
tp1022
g6
tp1023
Rp1024
(I1
(I0
tp1025
g13
I00
g16
tp1026
bsg85
g3
(g4
(I0
tp1027
g6
tp1028
Rp1029
(I1
(I0
tp1030
g13
I00
g16
tp1031
bsg91
g3
(g4
(I0
tp1032
g6
tp1033
Rp1034
(I1
(I0
tp1035
g13
I00
g16
tp1036
bsg97
g3
(g4
(I0
tp1037
g6
tp1038
Rp1039
(I1
(I0
tp1040
g13
I00
g16
tp1041
bsg103
g3
(g4
(I0
tp1042
g6
tp1043
Rp1044
(I1
(I0
tp1045
g13
I00
g16
tp1046
bsg109
g3
(g4
(I0
tp1047
g6
tp1048
Rp1049
(I1
(I0
tp1050
g13
I00
g16
tp1051
bsg115
g3
(g4
(I0
tp1052
g6
tp1053
Rp1054
(I1
(I0
tp1055
g13
I00
g16
tp1056
bsg121
g3
(g4
(I0
tp1057
g6
tp1058
Rp1059
(I1
(I0
tp1060
g13
I00
g16
tp1061
bsg127
g3
(g4
(I0
tp1062
g6
tp1063
Rp1064
(I1
(I1
tp1065
g37
I00
S'\x00\x00\x00\x00\x00\x00\x00\x00'
p1066
tp1067
bsg835
g3
(g4
(I0
tp1068
g6
tp1069
Rp1070
(I1
(I0
tp1071
g13
I00
g16
tp1072
bsg141
g3
(g4
(I0
tp1073
g6
tp1074
Rp1075
(I1
(I0
tp1076
g13
I00
g16
tp1077
bsg147
g3
(g4
(I0
tp1078
g6
tp1079
Rp1080
(I1
(I0
tp1081
g13
I00
g16
tp1082
bsg153
g3
(g4
(I0
tp1083
g6
tp1084
Rp1085
(I1
(I1
tp1086
g37
I00
S'\r\x00\x00\x00\x00\x00\x00\x00'
p1087
tp1088
bsg166
g3
(g4
(I0
tp1089
g6
tp1090
Rp1091
(I1
(I0
tp1092
g13
I00
g16
tp1093
bsg172
g3
(g4
(I0
tp1094
g6
tp1095
Rp1096
(I1
(I0
tp1097
g13
I00
g16
tp1098
bsg847
g3
(g4
(I0
tp1099
g6
tp1100
Rp1101
(I1
(I0
tp1102
g13
I00
g16
tp1103
bsg184
g3
(g4
(I0
tp1104
g6
tp1105
Rp1106
(I1
(I0
tp1107
g13
I00
g16
tp1108
bsg190
g3
(g4
(I0
tp1109
g6
tp1110
Rp1111
(I1
(I0
tp1112
g13
I00
g16
tp1113
bsg196
g3
(g4
(I0
tp1114
g6
tp1115
Rp1116
(I1
(I0
tp1117
g13
I00
g16
tp1118
bsg202
g3
(g4
(I0
tp1119
g6
tp1120
Rp1121
(I1
(I0
tp1122
g13
I00
g16
tp1123
bsg208
g3
(g4
(I0
tp1124
g6
tp1125
Rp1126
(I1
(I0
tp1127
g13
I00
g16
tp1128
bsg359
g3
(g4
(I0
tp1129
g6
tp1130
Rp1131
(I1
(I1
tp1132
g37
I00
S'\x00\x00\x00\x00\x00\x00\x00\x00'
p1133
tp1134
bsg220
g3
(g4
(I0
tp1135
g6
tp1136
Rp1137
(I1
(I0
tp1138
g13
I00
g16
tp1139
bsg226
g3
(g4
(I0
tp1140
g6
tp1141
Rp1142
(I1
(I0
tp1143
g13
I00
g16
tp1144
bsg232
g3
(g4
(I0
tp1145
g6
tp1146
Rp1147
(I1
(I0
tp1148
g13
I00
g16
tp1149
bsg238
g3
(g4
(I0
tp1150
g6
tp1151
Rp1152
(I1
(I0
tp1153
g13
I00
g16
tp1154
bsg60
g3
(g4
(I0
tp1155
g6
tp1156
Rp1157
(I1
(I1
tp1158
g37
I00
S'\x00\x00\x00\x00\x00\x00\x00\x00'
p1159
tp1160
bsg250
g3
(g4
(I0
tp1161
g6
tp1162
Rp1163
(I1
(I0
tp1164
g13
I00
g16
tp1165
bsg256
g3
(g4
(I0
tp1166
g6
tp1167
Rp1168
(I1
(I0
tp1169
g13
I00
g16
tp1170
bsg262
g3
(g4
(I0
tp1171
g6
tp1172
Rp1173
(I1
(I0
tp1174
g13
I00
g16
tp1175
bsg268
g3
(g4
(I0
tp1176
g6
tp1177
Rp1178
(I1
(I0
tp1179
g13
I00
g16
tp1180
bsg274
g3
(g4
(I0
tp1181
g6
tp1182
Rp1183
(I1
(I1
tp1184
g37
I00
S'\x02\x00\x00\x00\x00\x00\x00\x00'
p1185
tp1186
bsg281
g3
(g4
(I0
tp1187
g6
tp1188
Rp1189
(I1
(I0
tp1190
g13
I00
g16
tp1191
bsg287
g3
(g4
(I0
tp1192
g6
tp1193
Rp1194
(I1
(I0
tp1195
g13
I00
g16
tp1196
bsg293
g3
(g4
(I0
tp1197
g6
tp1198
Rp1199
(I1
(I0
tp1200
g13
I00
g16
tp1201
bsg299
g3
(g4
(I0
tp1202
g6
tp1203
Rp1204
(I1
(I0
tp1205
g13
I00
g16
tp1206
bsg305
g3
(g4
(I0
tp1207
g6
tp1208
Rp1209
(I1
(I0
tp1210
g13
I00
g16
tp1211
bsg311
g3
(g4
(I0
tp1212
g6
tp1213
Rp1214
(I1
(I0
tp1215
g13
I00
g16
tp1216
bsg317
g3
(g4
(I0
tp1217
g6
tp1218
Rp1219
(I1
(I0
tp1220
g13
I00
g16
tp1221
bsg323
g3
(g4
(I0
tp1222
g6
tp1223
Rp1224
(I1
(I0
tp1225
g13
I00
g16
tp1226
bsg329
g3
(g4
(I0
tp1227
g6
tp1228
Rp1229
(I1
(I0
tp1230
g13
I00
g16
tp1231
bsg335
g3
(g4
(I0
tp1232
g6
tp1233
Rp1234
(I1
(I0
tp1235
g13
I00
g16
tp1236
bsg341
g3
(g4
(I0
tp1237
g6
tp1238
Rp1239
(I1
(I0
tp1240
g13
I00
g16
tp1241
bsg347
g3
(g4
(I0
tp1242
g6
tp1243
Rp1244
(I1
(I0
tp1245
g13
I00
g16
tp1246
bsg353
g3
(g4
(I0
tp1247
g6
tp1248
Rp1249
(I1
(I0
tp1250
g13
I00
g16
tp1251
bsg214
g3
(g4
(I0
tp1252
g6
tp1253
Rp1254
(I1
(I0
tp1255
g13
I00
g16
tp1256
bsg505
g3
(g4
(I0
tp1257
g6
tp1258
Rp1259
(I1
(I0
tp1260
g13
I00
g16
tp1261
bsg372
g3
(g4
(I0
tp1262
g6
tp1263
Rp1264
(I1
(I0
tp1265
g13
I00
g16
tp1266
bsg920
g3
(g4
(I0
tp1267
g6
tp1268
Rp1269
(I1
(I1
tp1270
g37
I00
S'\x00\x00\x00\x00\x00\x00\x00\x00'
p1271
tp1272
bsg378
g3
(g4
(I0
tp1273
g6
tp1274
Rp1275
(I1
(I1
tp1276
g37
I00
S'\x06\x00\x00\x00\x00\x00\x00\x00'
p1277
tp1278
bsg385
g3
(g4
(I0
tp1279
g6
tp1280
Rp1281
(I1
(I0
tp1282
g13
I00
g16
tp1283
bsg391
g3
(g4
(I0
tp1284
g6
tp1285
Rp1286
(I1
(I0
tp1287
g13
I00
g16
tp1288
bsg397
g3
(g4
(I0
tp1289
g6
tp1290
Rp1291
(I1
(I0
tp1292
g13
I00
g16
tp1293
bsg403
g3
(g4
(I0
tp1294
g6
tp1295
Rp1296
(I1
(I0
tp1297
g13
I00
g16
tp1298
bsg409
g3
(g4
(I0
tp1299
g6
tp1300
Rp1301
(I1
(I0
tp1302
g13
I00
g16
tp1303
bsg415
g3
(g4
(I0
tp1304
g6
tp1305
Rp1306
(I1
(I0
tp1307
g13
I00
g16
tp1308
bsg421
g3
(g4
(I0
tp1309
g6
tp1310
Rp1311
(I1
(I0
tp1312
g13
I00
g16
tp1313
bsg427
g3
(g4
(I0
tp1314
g6
tp1315
Rp1316
(I1
(I0
tp1317
g13
I00
g16
tp1318
bsg433
g3
(g4
(I0
tp1319
g6
tp1320
Rp1321
(I1
(I0
tp1322
g13
I00
g16
tp1323
bsg439
g3
(g4
(I0
tp1324
g6
tp1325
Rp1326
(I1
(I0
tp1327
g13
I00
g16
tp1328
bsg445
g3
(g4
(I0
tp1329
g6
tp1330
Rp1331
(I1
(I0
tp1332
g13
I00
g16
tp1333
bsg451
g3
(g4
(I0
tp1334
g6
tp1335
Rp1336
(I1
(I0
tp1337
g13
I00
g16
tp1338
bsg457
g3
(g4
(I0
tp1339
g6
tp1340
Rp1341
(I1
(I0
tp1342
g13
I00
g16
tp1343
bsg511
g3
(g4
(I0
tp1344
g6
tp1345
Rp1346
(I1
(I0
tp1347
g13
I00
g16
tp1348
bsg469
g3
(g4
(I0
tp1349
g6
tp1350
Rp1351
(I1
(I0
tp1352
g13
I00
g16
tp1353
bsg914
g3
(g4
(I0
tp1354
g6
tp1355
Rp1356
(I1
(I0
tp1357
g13
I00
g16
tp1358
bsg481
g3
(g4
(I0
tp1359
g6
tp1360
Rp1361
(I1
(I0
tp1362
g13
I00
g16
tp1363
bsg487
g3
(g4
(I0
tp1364
g6
tp1365
Rp1366
(I1
(I0
tp1367
g13
I00
g16
tp1368
bsg493
g3
(g4
(I0
tp1369
g6
tp1370
Rp1371
(I1
(I0
tp1372
g13
I00
g16
tp1373
bsg499
g3
(g4
(I0
tp1374
g6
tp1375
Rp1376
(I1
(I0
tp1377
g13
I00
g16
tp1378
bsg366
g3
(g4
(I0
tp1379
g6
tp1380
Rp1381
(I1
(I0
tp1382
g13
I00
g16
tp1383
bsg463
g3
(g4
(I0
tp1384
g6
tp1385
Rp1386
(I1
(I0
tp1387
g13
I00
g16
tp1388
bsg517
g3
(g4
(I0
tp1389
g6
tp1390
Rp1391
(I1
(I0
tp1392
g13
I00
g16
tp1393
bsg523
g3
(g4
(I0
tp1394
g6
tp1395
Rp1396
(I1
(I0
tp1397
g13
I00
g16
tp1398
bsg529
g3
(g4
(I0
tp1399
g6
tp1400
Rp1401
(I1
(I0
tp1402
g13
I00
g16
tp1403
bsg535
g3
(g4
(I0
tp1404
g6
tp1405
Rp1406
(I1
(I0
tp1407
g13
I00
g16
tp1408
bsg541
g3
(g4
(I0
tp1409
g6
tp1410
Rp1411
(I1
(I0
tp1412
g13
I00
g16
tp1413
bsg547
g3
(g4
(I0
tp1414
g6
tp1415
Rp1416
(I1
(I0
tp1417
g13
I00
g16
tp1418
bsg553
g3
(g4
(I0
tp1419
g6
tp1420
Rp1421
(I1
(I1
tp1422
g37
I00
S'\x01\x00\x00\x00\x00\x00\x00\x00'
p1423
tp1424
bsg560
g3
(g4
(I0
tp1425
g6
tp1426
Rp1427
(I1
(I0
tp1428
g13
I00
g16
tp1429
bsg566
g3
(g4
(I0
tp1430
g6
tp1431
Rp1432
(I1
(I0
tp1433
g13
I00
g16
tp1434
bsg572
g3
(g4
(I0
tp1435
g6
tp1436
Rp1437
(I1
(I0
tp1438
g13
I00
g16
tp1439
bsg578
g3
(g4
(I0
tp1440
g6
tp1441
Rp1442
(I1
(I0
tp1443
g13
I00
g16
tp1444
bsg584
g3
(g4
(I0
tp1445
g6
tp1446
Rp1447
(I1
(I0
tp1448
g13
I00
g16
tp1449
bsg590
g3
(g4
(I0
tp1450
g6
tp1451
Rp1452
(I1
(I0
tp1453
g13
I00
g16
tp1454
bsg596
g3
(g4
(I0
tp1455
g6
tp1456
Rp1457
(I1
(I0
tp1458
g13
I00
g16
tp1459
bsg602
g3
(g4
(I0
tp1460
g6
tp1461
Rp1462
(I1
(I0
tp1463
g13
I00
g16
tp1464
bsg608
g3
(g4
(I0
tp1465
g6
tp1466
Rp1467
(I1
(I0
tp1468
g13
I00
g16
tp1469
bsg614
g3
(g4
(I0
tp1470
g6
tp1471
Rp1472
(I1
(I0
tp1473
g13
I00
g16
tp1474
bsg620
g3
(g4
(I0
tp1475
g6
tp1476
Rp1477
(I1
(I0
tp1478
g13
I00
g16
tp1479
bsg626
g3
(g4
(I0
tp1480
g6
tp1481
Rp1482
(I1
(I0
tp1483
g13
I00
g16
tp1484
bsg632
g3
(g4
(I0
tp1485
g6
tp1486
Rp1487
(I1
(I0
tp1488
g13
I00
g16
tp1489
bsg638
g3
(g4
(I0
tp1490
g6
tp1491
Rp1492
(I1
(I1
tp1493
g37
I00
S'\x01\x00\x00\x00\x00\x00\x00\x00'
p1494
tp1495
bsg645
g3
(g4
(I0
tp1496
g6
tp1497
Rp1498
(I1
(I0
tp1499
g13
I00
g16
tp1500
bsg651
g3
(g4
(I0
tp1501
g6
tp1502
Rp1503
(I1
(I0
tp1504
g13
I00
g16
tp1505
bsg657
g3
(g4
(I0
tp1506
g6
tp1507
Rp1508
(I1
(I0
tp1509
g13
I00
g16
tp1510
bsg663
g3
(g4
(I0
tp1511
g6
tp1512
Rp1513
(I1
(I0
tp1514
g13
I00
g16
tp1515
bsg669
g3
(g4
(I0
tp1516
g6
tp1517
Rp1518
(I1
(I0
tp1519
g13
I00
g16
tp1520
bsg675
g3
(g4
(I0
tp1521
g6
tp1522
Rp1523
(I1
(I0
tp1524
g13
I00
g16
tp1525
bsg681
g3
(g4
(I0
tp1526
g6
tp1527
Rp1528
(I1
(I0
tp1529
g13
I00
g16
tp1530
bsg687
g3
(g4
(I0
tp1531
g6
tp1532
Rp1533
(I1
(I0
tp1534
g13
I00
g16
tp1535
bsg693
g3
(g4
(I0
tp1536
g6
tp1537
Rp1538
(I1
(I0
tp1539
g13
I00
g16
tp1540
bsg699
g3
(g4
(I0
tp1541
g6
tp1542
Rp1543
(I1
(I1
tp1544
g37
I00
S'\x00\x00\x00\x00\x00\x00\x00\x00'
p1545
tp1546
bsg706
g3
(g4
(I0
tp1547
g6
tp1548
Rp1549
(I1
(I1
tp1550
g13
I00
S'\x00\x00\x00\x00\x00\x00\xf0?'
p1551
tp1552
bsg713
g3
(g4
(I0
tp1553
g6
tp1554
Rp1555
(I1
(I0
tp1556
g13
I00
g16
tp1557
bsg719
g3
(g4
(I0
tp1558
g6
tp1559
Rp1560
(I1
(I0
tp1561
g13
I00
g16
tp1562
bsg725
g3
(g4
(I0
tp1563
g6
tp1564
Rp1565
(I1
(I0
tp1566
g13
I00
g16
tp1567
bsg731
g3
(g4
(I0
tp1568
g6
tp1569
Rp1570
(I1
(I0
tp1571
g13
I00
g16
tp1572
bsg737
g3
(g4
(I0
tp1573
g6
tp1574
Rp1575
(I1
(I0
tp1576
g13
I00
g16
tp1577
bsg743
g3
(g4
(I0
tp1578
g6
tp1579
Rp1580
(I1
(I0
tp1581
g13
I00
g16
tp1582
bsg749
g3
(g4
(I0
tp1583
g6
tp1584
Rp1585
(I1
(I0
tp1586
g13
I00
g16
tp1587
bsg755
g3
(g4
(I0
tp1588
g6
tp1589
Rp1590
(I1
(I0
tp1591
g13
I00
g16
tp1592
bsg761
g3
(g4
(I0
tp1593
g6
tp1594
Rp1595
(I1
(I0
tp1596
g13
I00
g16
tp1597
bsg767
g3
(g4
(I0
tp1598
g6
tp1599
Rp1600
(I1
(I0
tp1601
g13
I00
g16
tp1602
bsg773
g3
(g4
(I0
tp1603
g6
tp1604
Rp1605
(I1
(I0
tp1606
g13
I00
g16
tp1607
bsg779
g3
(g4
(I0
tp1608
g6
tp1609
Rp1610
(I1
(I1
tp1611
g37
I00
S'\x00\x00\x00\x00\x00\x00\x00\x00'
p1612
tp1613
bsg786
g3
(g4
(I0
tp1614
g6
tp1615
Rp1616
(I1
(I0
tp1617
g13
I00
g16
tp1618
bsg792
g3
(g4
(I0
tp1619
g6
tp1620
Rp1621
(I1
(I0
tp1622
g13
I00
g16
tp1623
bsg798
g3
(g4
(I0
tp1624
g6
tp1625
Rp1626
(I1
(I1
tp1627
g37
I00
S'\x01\x00\x00\x00\x00\x00\x00\x00'
p1628
tp1629
bsg805
g3
(g4
(I0
tp1630
g6
tp1631
Rp1632
(I1
(I0
tp1633
g13
I00
g16
tp1634
bsg811
g3
(g4
(I0
tp1635
g6
tp1636
Rp1637
(I1
(I0
tp1638
g13
I00
g16
tp1639
bsg817
g3
(g4
(I0
tp1640
g6
tp1641
Rp1642
(I1
(I0
tp1643
g13
I00
g16
tp1644
bsg823
g3
(g4
(I0
tp1645
g6
tp1646
Rp1647
(I1
(I0
tp1648
g13
I00
g16
tp1649
bsg829
g3
(g4
(I0
tp1650
g6
tp1651
Rp1652
(I1
(I0
tp1653
g13
I00
g16
tp1654
bsg134
g3
(g4
(I0
tp1655
g6
tp1656
Rp1657
(I1
(I1
tp1658
g37
I00
S'\x01\x00\x00\x00\x00\x00\x00\x00'
p1659
tp1660
bsg841
g3
(g4
(I0
tp1661
g6
tp1662
Rp1663
(I1
(I0
tp1664
g13
I00
g16
tp1665
bsg178
g3
(g4
(I0
tp1666
g6
tp1667
Rp1668
(I1
(I0
tp1669
g13
I00
g16
tp1670
bsg853
g3
(g4
(I0
tp1671
g6
tp1672
Rp1673
(I1
(I0
tp1674
g13
I00
g16
tp1675
bsg859
g3
(g4
(I0
tp1676
g6
tp1677
Rp1678
(I1
(I0
tp1679
g13
I00
g16
tp1680
bsg963
g3
(g4
(I0
tp1681
g6
tp1682
Rp1683
(I1
(I0
tp1684
g13
I00
g16
tp1685
bsg871
g3
(g4
(I0
tp1686
g6
tp1687
Rp1688
(I1
(I0
tp1689
g13
I00
g16
tp1690
bsg877
g3
(g4
(I0
tp1691
g6
tp1692
Rp1693
(I1
(I1
tp1694
g37
I00
S'\x00\x00\x00\x00\x00\x00\x00\x00'
p1695
tp1696
bsg884
g3
(g4
(I0
tp1697
g6
tp1698
Rp1699
(I1
(I0
tp1700
g13
I00
g16
tp1701
bsg890
g3
(g4
(I0
tp1702
g6
tp1703
Rp1704
(I1
(I0
tp1705
g13
I00
g16
tp1706
bsg896
g3
(g4
(I0
tp1707
g6
tp1708
Rp1709
(I1
(I0
tp1710
g13
I00
g16
tp1711
bsg902
g3
(g4
(I0
tp1712
g6
tp1713
Rp1714
(I1
(I0
tp1715
g13
I00
g16
tp1716
bsg908
g3
(g4
(I0
tp1717
g6
tp1718
Rp1719
(I1
(I0
tp1720
g13
I00
g16
tp1721
bsg475
g3
(g4
(I0
tp1722
g6
tp1723
Rp1724
(I1
(I0
tp1725
g13
I00
g16
tp1726
bsg160
g3
(g4
(I0
tp1727
g6
tp1728
Rp1729
(I1
(I0
tp1730
g13
I00
g16
tp1731
bsg927
g3
(g4
(I0
tp1732
g6
tp1733
Rp1734
(I1
(I0
tp1735
g13
I00
g16
tp1736
bsg933
g3
(g4
(I0
tp1737
g6
tp1738
Rp1739
(I1
(I0
tp1740
g13
I00
g16
tp1741
bsg939
g3
(g4
(I0
tp1742
g6
tp1743
Rp1744
(I1
(I0
tp1745
g13
I00
g16
tp1746
bsg945
g3
(g4
(I0
tp1747
g6
tp1748
Rp1749
(I1
(I0
tp1750
g13
I00
g16
tp1751
bsg951
g3
(g4
(I0
tp1752
g6
tp1753
Rp1754
(I1
(I0
tp1755
g13
I00
g16
tp1756
bsg957
g3
(g4
(I0
tp1757
g6
tp1758
Rp1759
(I1
(I0
tp1760
g13
I00
g16
tp1761
bsg865
g3
(g4
(I0
tp1762
g6
tp1763
Rp1764
(I1
(I0
tp1765
g13
I00
g16
tp1766
bsa.