(dp1
S'cv_endtime'
p2
(lp3
F1448864986.3692
aF1448864992.755604
aF1448865000.3764701
asS'folds'
p4
I1
sS'cv_starttime'
p5
(lp6
F1448864985.984447
aF1448864992.342319
aF1448864999.9876089
asS'endtime'
p7
(lp8
sS'optimizer'
p9
S'/home/lisha/school/HPOlib/optimizers/tpe/random_hyperopt_august2013_mod'
p10
sS'optimizer_time'
p11
(lp12
sS'instance_order'
p13
(lp14
(I0
I0
tp15
a(I1
I0
tp16
a(I2
I0
tp17
asS'max_wallclock_time'
p18
S''
sS'title'
p19
NsS'trials'
p20
(lp21
(dp22
S'status'
p23
I3
sS'std'
p24
cnumpy.core.multiarray
scalar
p25
(cnumpy
dtype
p26
(S'f8'
I0
I1
tRp27
(I3
S'<'
NNNI-1
I-1
I0
tbS'\x00\x00\x00\x00\x00\x00\x00\x00'
tRp28
sS'instance_durations'
p29
cnumpy.core.multiarray
_reconstruct
p30
(cnumpy
ndarray
p31
(I0
tS'b'
tRp32
(I1
(I1
tg26
(S'f8'
I0
I1
tRp33
(I3
S'<'
NNNI-1
I-1
I0
tbI00
S'\x9a\x06E\xf3\x00\x16\xb1?'
tbsS'instance_results'
p34
g30
(g31
(I0
tS'b'
tRp35
(I1
(I1
tg33
I00
S'c\x80D\x13(zF@'
tbsS'instance_status'
p36
g30
(g31
(I0
tS'b'
tRp37
(I1
(I1
tg26
(S'i8'
I0
I1
tRp38
(I3
S'<'
NNNI-1
I-1
I0
tbI00
S'\x03\x00\x00\x00\x00\x00\x00\x00'
tbsS'params'
p39
ccollections
OrderedDict
p40
((lp41
(lp42
S'-x'
p43
aS'5.80486740163'
p44
aa(lp45
S'-y'
p46
aS'6.25533007054'
p47
aatRp48
sS'result'
p49
g25
(g27
S'c\x80D\x13(zF@'
tRp50
sS'duration'
p51
g25
(g27
S'\x9a\x06E\xf3\x00\x16\xb1?'
tRp52
sS'test_error'
p53
Fnan
sa(dp54
S'status'
p55
I3
sS'std'
p56
g25
(g27
S'\x00\x00\x00\x00\x00\x00\x00\x00'
tRp57
sS'instance_durations'
p58
g30
(g31
(I0
tS'b'
tRp59
(I1
(I1
tg26
(S'f8'
I0
I1
tRp60
(I3
S'<'
NNNI-1
I-1
I0
tbI00
S'\xfd\x88_\xb1\x86\x8b\xb4?'
tbsS'instance_results'
p61
g30
(g31
(I0
tS'b'
tRp62
(I1
(I1
tg60
I00
S'<\xbf(A\x7f\tY@'
tbsS'instance_status'
p63
g30
(g31
(I0
tS'b'
tRp64
(I1
(I1
tg26
(S'i8'
I0
I1
tRp65
(I3
S'<'
NNNI-1
I-1
I0
tbI00
S'\x03\x00\x00\x00\x00\x00\x00\x00'
tbsS'params'
p66
g40
((lp67
(lp68
S'-x'
p69
aS'-4.61110652258'
p70
aa(lp71
S'-y'
p72
aS'6.53992353213'
p73
aatRp74
sS'result'
p75
g25
(g27
S'<\xbf(A\x7f\tY@'
tRp76
sS'duration'
p77
g25
(g27
S'\xfd\x88_\xb1\x86\x8b\xb4?'
tRp78
sS'test_error'
p79
Fnan
sa(dp80
S'status'
p81
I3
sS'std'
p82
g25
(g27
S'\x00\x00\x00\x00\x00\x00\x00\x00'
tRp83
sS'instance_durations'
p84
g30
(g31
(I0
tS'b'
tRp85
(I1
(I1
tg26
(S'f8'
I0
I1
tRp86
(I3
S'<'
NNNI-1
I-1
I0
tbI00
S'<\xa3\xadJ"\xfb\xb0?'
tbsS'instance_results'
p87
g30
(g31
(I0
tS'b'
tRp88
(I1
(I1
tg86
I00
S'\xa1\xa1\x7f\x82\x8b\x17Q@'
tbsS'instance_status'
p89
g30
(g31
(I0
tS'b'
tRp90
(I1
(I1
tg26
(S'i8'
I0
I1
tRp91
(I3
S'<'
NNNI-1
I-1
I0
tbI00
S'\x03\x00\x00\x00\x00\x00\x00\x00'
tbsS'params'
p92
g40
((lp93
(lp94
S'-x'
p95
aS'5.62221733927'
p96
aa(lp97
S'-y'
p98
aS'8.26196853862'
p99
aatRp100
sS'result'
p101
g25
(g27
S'\xa1\xa1\x7f\x82\x8b\x17Q@'
tRp102
sS'duration'
p103
g25
(g27
S'<\xa3\xadJ"\xfb\xb0?'
tRp104
sS'test_error'
p105
Fnan
sasS'total_wallclock_time'
p106
F0.21332800000000002
sS'experiment_name'
p107
S'random_hyperopt_august2013_mod'
p108
sS'starttime'
p109
(lp110
F1448864976.3241789
as.